; Function Attrs: nounwind uwtable
define internal noundef i32 @close_istream_loose(ptr noundef %0) #0 {
  %2 = getelementptr inbounds nuw i8, ptr %0, i64 192
  %3 = load i32, ptr %2, align 8, !tbaa !72
  %4 = icmp eq i32 %3, 1
  br i1 %4, label %5, label %close_deflated_stream.exit

5:                                                ; preds = %1
  %6 = getelementptr inbounds nuw i8, ptr %0, i64 32
  tail call void @git_inflate_end(ptr noundef nonnull %6) #11
  br label %close_deflated_stream.exit

close_deflated_stream.exit:                       ; preds = %1, %5
  %7 = getelementptr inbounds nuw i8, ptr %0, i64 200
  %8 = load ptr, ptr %7, align 8, !tbaa !56
  %9 = getelementptr inbounds nuw i8, ptr %0, i64 208
  %10 = load i64, ptr %9, align 8, !tbaa !56
  %11 = tail call i32 @munmap(ptr noundef %8, i64 noundef %10) #11
  ret i32 0
}